; Function Attrs: mustprogress uwtable
define void @_ZN8facebook5velox5cache7SsdFile11unpinRegionEm(ptr noundef nonnull align 8 dereferenceable(381) %this, i64 noundef %offset) local_unnamed_addr #4 align 2 personality ptr @__gxx_personality_v0 {
entry:
  %mutex_ = getelementptr inbounds i8, ptr %this, i64 40
  %call1.i.i.i.i = tail call noundef i32 @pthread_rwlock_wrlock(ptr noundef nonnull %mutex_) #34
  %cmp.i.i.i = icmp eq i32 %call1.i.i.i.i, 35
  br i1 %cmp.i.i.i, label %if.then.i.i.i, label %_ZNSt10lock_guardISt12shared_mutexEC2ERS0_.exit

if.then.i.i.i:                                    ; preds = %entry
  tail call void @_ZSt20__throw_system_errori(i32 noundef 35) #35
  unreachable

_ZNSt10lock_guardISt12shared_mutexEC2ERS0_.exit:  ; preds = %entry
  %regionPins_ = getelementptr inbounds i8, ptr %this, i64 192
  %0 = shl i64 %offset, 6
  %conv = ashr i64 %0, 32
  %1 = load ptr, ptr %regionPins_, align 8
  %add.ptr.i = getelementptr inbounds i32, ptr %1, i64 %conv
  %2 = load i32, ptr %add.ptr.i, align 4
  %dec = add nsw i32 %2, -1
  store i32 %dec, ptr %add.ptr.i, align 4
  %cmp = icmp slt i32 %2, 1
  br i1 %cmp, label %if.then, label %if.end

if.then:                                          ; preds = %_ZNSt10lock_guardISt12shared_mutexEC2ERS0_.exit
  tail call void @llvm.trap()
  unreachable

lpad:                                             ; preds = %if.then5
  %3 = landingpad { ptr, i32 }
          cleanup
  %call1.i.i.i.i2 = tail call noundef i32 @pthread_rwlock_unlock(ptr noundef nonnull %mutex_) #34
  resume { ptr, i32 } %3

if.end:                                           ; preds = %_ZNSt10lock_guardISt12shared_mutexEC2ERS0_.exit
  %suspended_ = getelementptr inbounds i8, ptr %this, i64 104
  %4 = load i8, ptr %suspended_, align 8
  %5 = and i8 %4, 1
  %tobool = icmp ne i8 %5, 0
  %cmp4 = icmp eq i32 %dec, 0
  %or.cond = select i1 %tobool, i1 %cmp4, i1 false
  br i1 %or.cond, label %if.then5, label %if.end8

if.then5:                                         ; preds = %if.end
  %call7 = invoke noundef zeroext i1 @_ZN8facebook5velox5cache7SsdFile17growOrEvictLockedEv(ptr noundef nonnull align 8 dereferenceable(381) %this)
          to label %if.end8 unwind label %lpad

if.end8:                                          ; preds = %if.then5, %if.end
  %call1.i.i.i.i3 = tail call noundef i32 @pthread_rwlock_unlock(ptr noundef nonnull %mutex_) #34
  ret void
}